target datalayout = "e-m:e-p270:32:32-p271:32:32-p272:64:64-i64:64-i128:128-f80:128-n8:16:32:64-S128"
target triple = "x86_64-unknown-linux-gnu"

%struct.SCSISense = type { i8, i8, i8 }
%struct.UfsLu = type { %struct.DeviceState, i8, %struct.UnitDescriptor, %struct.SCSIBus, ptr, %struct.BlockConf, ptr }
%struct.DeviceState = type { %struct.Object, ptr, ptr, i8, i8, i64, ptr, i32, i8, ptr, %struct.NamedGPIOListHead, %struct.NamedClockListHead, %struct.BusStateHead, i32, i32, i32, %struct.ResettableState, ptr, %struct.MemReentrancyGuard }
%struct.Object = type { ptr, ptr, ptr, i32, ptr }
%struct.NamedGPIOListHead = type { ptr }
%struct.NamedClockListHead = type { ptr }
%struct.BusStateHead = type { ptr }
%struct.ResettableState = type { i32, i8, i8 }
%struct.MemReentrancyGuard = type { i8 }
%struct.UnitDescriptor = type <{ i8, i8, i8, i8, i8, i8, i8, i8, i8, i8, i8, i64, i32, i8, i64, i16, i8, [6 x i8], i32 }>
%struct.SCSIBus = type { %struct.BusState, i32, %struct.SCSISense, ptr, i32 }
%struct.BusState = type { %struct.Object, ptr, ptr, ptr, i32, i8, i8, i32, %union.BusChildHead, %struct.BusStateEntry, %struct.ResettableState }
%union.BusChildHead = type { %struct.QTailQLink }
%struct.QTailQLink = type { ptr, ptr }
%struct.BusStateEntry = type { ptr, ptr }
%struct.BlockConf = type { ptr, i32, i32, i32, i32, i32, i32, i32, i32, i32, i32, i32, i32, i32, i32, i8, i32, i32, i32, i32 }

; Function Attrs: nounwind sspstrong uwtable
define internal void @ufs_lu_unrealize(ptr noundef %dev) #0 {
entry:
  %dev.addr = alloca ptr, align 8
  %lu = alloca ptr, align 8
  %tmp = alloca ptr, align 8
  %__mptr = alloca ptr, align 8
  %tmp1 = alloca ptr, align 8
  store ptr %dev, ptr %dev.addr, align 8
  %0 = load ptr, ptr %dev.addr, align 8
  store ptr %0, ptr %__mptr, align 8
  %1 = load ptr, ptr %__mptr, align 8
  %add.ptr = getelementptr i8, ptr %1, i64 0
  store ptr %add.ptr, ptr %tmp1, align 8
  %2 = load ptr, ptr %tmp1, align 8
  store ptr %2, ptr %tmp, align 8
  %3 = load ptr, ptr %tmp, align 8
  store ptr %3, ptr %lu, align 8
  %4 = load ptr, ptr %lu, align 8
  %scsi_dev = getelementptr inbounds %struct.UfsLu, ptr %4, i32 0, i32 4
  %5 = load ptr, ptr %scsi_dev, align 8
  %tobool = icmp ne ptr %5, null
  br i1 %tobool, label %if.then, label %if.end

if.then:                                          ; preds = %entry
  %6 = load ptr, ptr %lu, align 8
  %scsi_dev2 = getelementptr inbounds %struct.UfsLu, ptr %6, i32 0, i32 4
  %7 = load ptr, ptr %scsi_dev2, align 8
  call void @object_unref(ptr noundef %7)
  %8 = load ptr, ptr %lu, align 8
  %scsi_dev3 = getelementptr inbounds %struct.UfsLu, ptr %8, i32 0, i32 4
  store ptr null, ptr %scsi_dev3, align 8
  br label %if.end

if.end:                                           ; preds = %if.then, %entry
  ret void
}