; Function Attrs: nounwind sspstrong uwtable
define internal void @ufs_lu_unrealize(ptr noundef captures(none) %dev) #1 {
entry:
  %scsi_dev = getelementptr inbounds nuw i8, ptr %dev, i64 352
  %0 = load ptr, ptr %scsi_dev, align 8
  %tobool.not = icmp eq ptr %0, null
  br i1 %tobool.not, label %if.end, label %if.then

if.then:                                          ; preds = %entry
  tail call void @object_unref(ptr noundef nonnull %0) #9
  store ptr null, ptr %scsi_dev, align 8
  br label %if.end

if.end:                                           ; preds = %if.then, %entry
  ret void
}